target datalayout = "e-m:e-p270:32:32-p271:32:32-p272:64:64-i64:64-i128:128-f80:128-n8:16:32:64-S128"
target triple = "x86_64-pc-linux-gnu"

%"struct.Luau::Symbol" = type { ptr, %"struct.Luau::AstName" }
%"struct.Luau::AstName" = type { ptr }
%"struct.Luau::DfgScope" = type { ptr, i32, [4 x i8], %"class.Luau::DenseHashMap.28", %"class.Luau::DenseHashMap.31" }
%"class.Luau::DenseHashMap.28" = type { %"class.Luau::detail::DenseHashTable.29" }
%"class.Luau::detail::DenseHashTable.29" = type <{ ptr, i64, i64, %"struct.Luau::Symbol", [8 x i8] }>
%"class.Luau::DenseHashMap.31" = type { %"class.Luau::detail::DenseHashTable.32" }
%"class.Luau::detail::DenseHashTable.32" = type <{ ptr, i64, i64, ptr, [8 x i8] }>
%"struct.std::pair.39" = type { %"struct.Luau::Symbol", ptr }

; Function Attrs: mustprogress uwtable
define linkonce_odr dso_local noundef ptr @_ZNK4Luau12DenseHashMapINS_6SymbolEPKNS_3DefESt4hashIS1_ESt8equal_toIS1_EE4findERKS1_(ptr noundef nonnull align 8 dereferenceable(48) %0, ptr noundef nonnull align 8 dereferenceable(16) %1) #2 comdat align 2 {
  %3 = alloca ptr, align 8
  %4 = alloca ptr, align 8
  %5 = alloca ptr, align 8
  store ptr %0, ptr %3, align 8, !tbaa !107
  store ptr %1, ptr %4, align 8, !tbaa !109
  %6 = load ptr, ptr %3, align 8
  call void @llvm.lifetime.start.p0(i64 8, ptr %5) #17
  %7 = getelementptr inbounds nuw %"class.Luau::DenseHashMap.28", ptr %6, i32 0, i32 0
  %8 = load ptr, ptr %4, align 8, !tbaa !109
  %9 = call noundef ptr @_ZNK4Luau6detail14DenseHashTableINS_6SymbolESt4pairIS2_PKNS_3DefEES3_IKS2_S6_ENS0_16ItemInterfaceMapIS2_S6_EESt4hashIS2_ESt8equal_toIS2_EE4findERS8_(ptr noundef nonnull align 8 dereferenceable(42) %7, ptr noundef nonnull align 8 dereferenceable(16) %8)
  store ptr %9, ptr %5, align 8, !tbaa !111
  %10 = load ptr, ptr %5, align 8, !tbaa !111
  %11 = icmp ne ptr %10, null
  br i1 %11, label %12, label %15

12:                                               ; preds = %2
  %13 = load ptr, ptr %5, align 8, !tbaa !111
  %14 = getelementptr inbounds nuw %"struct.std::pair.39", ptr %13, i32 0, i32 1
  br label %16

15:                                               ; preds = %2
  br label %16

16:                                               ; preds = %15, %12
  %17 = phi ptr [ %14, %12 ], [ null, %15 ]
  call void @llvm.lifetime.end.p0(i64 8, ptr %5) #17
  ret ptr %17
}

; Function Attrs: mustprogress uwtable
define dso_local noundef zeroext i1 @_ZNK4Luau8DfgScope19canUpdateDefinitionENS_6SymbolE(ptr noundef nonnull align 8 dereferenceable(104) %0, ptr %1, ptr %2) #2 align 2 {
  %4 = alloca i1, align 1
  %5 = alloca %"struct.Luau::Symbol", align 8
  %6 = alloca ptr, align 8
  %7 = alloca ptr, align 8
  %8 = alloca i32, align 4
  %9 = getelementptr inbounds nuw { ptr, ptr }, ptr %5, i32 0, i32 0
  store ptr %1, ptr %9, align 8
  %10 = getelementptr inbounds nuw { ptr, ptr }, ptr %5, i32 0, i32 1
  store ptr %2, ptr %10, align 8
  store ptr %0, ptr %6, align 8, !tbaa !87
  %11 = load ptr, ptr %6, align 8
  call void @llvm.lifetime.start.p0(i64 8, ptr %7) #17
  store ptr %11, ptr %7, align 8, !tbaa !87
  br label %12

12:                                               ; preds = %30, %3
  %13 = load ptr, ptr %7, align 8, !tbaa !87
  %14 = icmp ne ptr %13, null
  br i1 %14, label %16, label %15

15:                                               ; preds = %12
  store i32 2, ptr %8, align 4
  br label %34

16:                                               ; preds = %12
  %17 = load ptr, ptr %7, align 8, !tbaa !87
  %18 = getelementptr inbounds nuw %"struct.Luau::DfgScope", ptr %17, i32 0, i32 3
  %19 = call noundef ptr @_ZNK4Luau12DenseHashMapINS_6SymbolEPKNS_3DefESt4hashIS1_ESt8equal_toIS1_EE4findERKS1_(ptr noundef nonnull align 8 dereferenceable(48) %18, ptr noundef nonnull align 8 dereferenceable(16) %5)
  %20 = icmp ne ptr %19, null
  br i1 %20, label %21, label %22

21:                                               ; preds = %16
  store i1 true, ptr %4, align 1
  store i32 1, ptr %8, align 4
  br label %34

22:                                               ; preds = %16
  %23 = load ptr, ptr %7, align 8, !tbaa !87
  %24 = getelementptr inbounds nuw %"struct.Luau::DfgScope", ptr %23, i32 0, i32 1
  %25 = load i32, ptr %24, align 8, !tbaa !151
  %26 = icmp eq i32 %25, 1
  br i1 %26, label %27, label %28

27:                                               ; preds = %22
  store i1 false, ptr %4, align 1
  store i32 1, ptr %8, align 4
  br label %34

28:                                               ; preds = %22
  br label %29

29:                                               ; preds = %28
  br label %30

30:                                               ; preds = %29
  %31 = load ptr, ptr %7, align 8, !tbaa !87
  %32 = getelementptr inbounds nuw %"struct.Luau::DfgScope", ptr %31, i32 0, i32 0
  %33 = load ptr, ptr %32, align 8, !tbaa !89
  store ptr %33, ptr %7, align 8, !tbaa !87
  br label %12, !llvm.loop !152

34:                                               ; preds = %27, %21, %15
  call void @llvm.lifetime.end.p0(i64 8, ptr %7) #17
  %35 = load i32, ptr %8, align 4
  switch i32 %35, label %39 [
    i32 2, label %36
    i32 1, label %37
  ]

36:                                               ; preds = %34
  store i1 true, ptr %4, align 1
  br label %37

37:                                               ; preds = %36, %34
  %38 = load i1, ptr %4, align 1
  ret i1 %38

39:                                               ; preds = %34
  unreachable
}