; Function Attrs: mustprogress uwtable
define dso_local noundef zeroext i1 @_ZNK4Luau8DfgScope19canUpdateDefinitionENS_6SymbolE(ptr noundef nonnull align 8 dereferenceable(104) %0, ptr %1, ptr %2) local_unnamed_addr #2 align 2 {
  %4 = alloca %"struct.Luau::Symbol", align 8
  store ptr %1, ptr %4, align 8
  %5 = getelementptr inbounds nuw i8, ptr %4, i64 8
  store ptr %2, ptr %5, align 8
  br label %6

6:                                                ; preds = %3, %13
  %.069 = phi ptr [ %0, %3 ], [ %14, %13 ]
  %7 = getelementptr inbounds nuw i8, ptr %.069, i64 16
  %8 = call noundef ptr @_ZNK4Luau6detail14DenseHashTableINS_6SymbolESt4pairIS2_PKNS_3DefEES3_IKS2_S6_ENS0_16ItemInterfaceMapIS2_S6_EESt4hashIS2_ESt8equal_toIS2_EE4findERS8_(ptr noundef nonnull align 8 dereferenceable(48) %7, ptr noundef nonnull align 8 dereferenceable(16) %4)
  %.not.i = icmp eq ptr %8, null
  br i1 %.not.i, label %9, label %15

9:                                                ; preds = %6
  %10 = getelementptr inbounds nuw i8, ptr %.069, i64 8
  %11 = load i32, ptr %10, align 8, !tbaa !141
  %12 = icmp eq i32 %11, 1
  br i1 %12, label %15, label %13

13:                                               ; preds = %9
  %14 = load ptr, ptr %.069, align 8, !tbaa !80
  %.not = icmp eq ptr %14, null
  br i1 %.not, label %15, label %6, !llvm.loop !142

15:                                               ; preds = %9, %6, %13
  %.not.lcssa = phi i1 [ false, %9 ], [ false, %6 ], [ true, %13 ]
  %.07 = phi i1 [ false, %9 ], [ true, %6 ], [ undef, %13 ]
  %spec.select = or i1 %.not.lcssa, %.07
  ret i1 %spec.select
}